target datalayout = "e-m:e-p270:32:32-p271:32:32-p272:64:64-i64:64-i128:128-f80:128-n8:16:32:64-S128"
target triple = "x86_64-pc-linux-gnu"

%struct.expert_field = type { i32, i32 }
%struct.dbus_packet_t = type { ptr, ptr, i32, i32, i8, i32, i32, ptr, ptr, ptr, ptr, ptr, i32, ptr, ptr, ptr, i32 }
%struct._proto_node = type { ptr, ptr, ptr, ptr, ptr, ptr, ptr }
%struct.field_info = type { ptr, i32, i32, i32, i32, i32, i32, ptr, ptr, ptr, i32, i32 }

@hf_dbus_padding = internal global i32 0, align 4
@ei_dbus_padding_invalid = internal global %struct.expert_field zeroinitializer, align 4

; Function Attrs: inlinehint nounwind null_pointer_is_valid sspstrong uwtable
define internal void @proto_item_set_hidden(ptr noundef %0) #7 {
  %2 = alloca ptr, align 8
  store ptr %0, ptr %2, align 8
  %3 = load ptr, ptr %2, align 8
  %4 = icmp ne ptr %3, null
  br i1 %4, label %5, label %24

5:                                                ; preds = %1
  br label %6

6:                                                ; preds = %5
  %7 = load ptr, ptr %2, align 8
  %8 = getelementptr inbounds nuw %struct._proto_node, ptr %7, i32 0, i32 5
  %9 = load ptr, ptr %8, align 8
  %10 = icmp ne ptr %9, null
  br i1 %10, label %11, label %22

11:                                               ; preds = %6
  %12 = load ptr, ptr %2, align 8
  %13 = getelementptr inbounds nuw %struct._proto_node, ptr %12, i32 0, i32 5
  %14 = load ptr, ptr %13, align 8
  %15 = getelementptr inbounds nuw %struct.field_info, ptr %14, i32 0, i32 6
  %16 = load i32, ptr %15, align 4
  %17 = or i32 %16, 1
  %18 = load ptr, ptr %2, align 8
  %19 = getelementptr inbounds nuw %struct._proto_node, ptr %18, i32 0, i32 5
  %20 = load ptr, ptr %19, align 8
  %21 = getelementptr inbounds nuw %struct.field_info, ptr %20, i32 0, i32 6
  store i32 %17, ptr %21, align 4
  br label %22

22:                                               ; preds = %11, %6
  br label %23

23:                                               ; preds = %22
  br label %24

24:                                               ; preds = %23, %1
  ret void
}

; Function Attrs: null_pointer_is_valid sspstrong uwtable
define internal void @add_expert(ptr noundef %0, ptr noundef %1) #0 {
  %3 = alloca ptr, align 8
  %4 = alloca ptr, align 8
  store ptr %0, ptr %3, align 8
  store ptr %1, ptr %4, align 8
  %5 = load ptr, ptr %3, align 8
  %6 = getelementptr inbounds nuw %struct.dbus_packet_t, ptr %5, i32 0, i32 1
  %7 = load ptr, ptr %6, align 8
  %8 = load ptr, ptr %3, align 8
  %9 = getelementptr inbounds nuw %struct.dbus_packet_t, ptr %8, i32 0, i32 7
  %10 = load ptr, ptr %9, align 8
  %11 = load ptr, ptr %4, align 8
  %12 = call ptr @expert_add_info(ptr noundef %7, ptr noundef %10, ptr noundef %11)
  ret void
}

; Function Attrs: nounwind null_pointer_is_valid sspstrong uwtable
define internal i32 @calculate_padding_len(i32 noundef %0, i8 noundef signext %1) #6 {
  %3 = alloca i32, align 4
  %4 = alloca i8, align 1
  %5 = alloca i32, align 4
  store i32 %0, ptr %3, align 4
  store i8 %1, ptr %4, align 1
  call void @llvm.lifetime.start.p0(i64 4, ptr %5) #11
  %6 = load i8, ptr %4, align 1
  %7 = sext i8 %6 to i32
  switch i32 %7, label %9 [
    i32 121, label %8
    i32 103, label %8
    i32 118, label %8
    i32 110, label %10
    i32 113, label %10
    i32 105, label %11
    i32 117, label %11
    i32 98, label %11
    i32 111, label %11
    i32 97, label %11
    i32 115, label %11
    i32 104, label %11
    i32 120, label %12
    i32 116, label %12
    i32 100, label %12
    i32 40, label %12
    i32 123, label %12
  ]

8:                                                ; preds = %2, %2, %2
  br label %9

9:                                                ; preds = %2, %8
  store i32 1, ptr %5, align 4
  br label %13

10:                                               ; preds = %2, %2
  store i32 2, ptr %5, align 4
  br label %13

11:                                               ; preds = %2, %2, %2, %2, %2, %2, %2
  store i32 4, ptr %5, align 4
  br label %13

12:                                               ; preds = %2, %2, %2, %2, %2
  store i32 8, ptr %5, align 4
  br label %13

13:                                               ; preds = %12, %11, %10, %9
  %14 = load i32, ptr %5, align 4
  %15 = load i32, ptr %3, align 4
  %16 = load i32, ptr %5, align 4
  %17 = srem i32 %15, %16
  %18 = sub i32 %14, %17
  %19 = load i32, ptr %5, align 4
  %20 = srem i32 %18, %19
  call void @llvm.lifetime.end.p0(i64 4, ptr %5) #11
  ret i32 %20
}

; Function Attrs: null_pointer_is_valid sspstrong uwtable
define internal i32 @add_padding(ptr noundef %0, i8 noundef signext %1) #0 {
  %3 = alloca i32, align 4
  %4 = alloca ptr, align 8
  %5 = alloca i8, align 1
  %6 = alloca i8, align 1
  %7 = alloca ptr, align 8
  %8 = alloca i32, align 4
  %9 = alloca i32, align 4
  %10 = alloca i32, align 4
  %11 = alloca i32, align 4
  store ptr %0, ptr %4, align 8
  store i8 %1, ptr %5, align 1
  call void @llvm.lifetime.start.p0(i64 1, ptr %6) #11
  call void @llvm.lifetime.start.p0(i64 8, ptr %7) #11
  %12 = load ptr, ptr %4, align 8
  %13 = getelementptr inbounds nuw %struct.dbus_packet_t, ptr %12, i32 0, i32 0
  %14 = load ptr, ptr %13, align 8
  %15 = call ptr @ptvcursor_tvbuff(ptr noundef %14)
  store ptr %15, ptr %7, align 8
  call void @llvm.lifetime.start.p0(i64 4, ptr %8) #11
  %16 = load ptr, ptr %4, align 8
  %17 = getelementptr inbounds nuw %struct.dbus_packet_t, ptr %16, i32 0, i32 0
  %18 = load ptr, ptr %17, align 8
  %19 = call i32 @ptvcursor_current_offset(ptr noundef %18)
  store i32 %19, ptr %8, align 4
  call void @llvm.lifetime.start.p0(i64 4, ptr %9) #11
  %20 = load i32, ptr %8, align 4
  %21 = load i8, ptr %5, align 1
  %22 = call i32 @calculate_padding_len(i32 noundef %20, i8 noundef signext %21)
  store i32 %22, ptr %9, align 4
  %23 = load i32, ptr %9, align 4
  %24 = icmp ne i32 %23, 0
  br i1 %24, label %25, label %64

25:                                               ; preds = %2
  %26 = load ptr, ptr %4, align 8
  %27 = getelementptr inbounds nuw %struct.dbus_packet_t, ptr %26, i32 0, i32 0
  %28 = load ptr, ptr %27, align 8
  %29 = load i32, ptr @hf_dbus_padding, align 4
  %30 = load i32, ptr %9, align 4
  %31 = load ptr, ptr %4, align 8
  %32 = getelementptr inbounds nuw %struct.dbus_packet_t, ptr %31, i32 0, i32 2
  %33 = load i32, ptr %32, align 8
  %34 = call ptr @ptvcursor_add(ptr noundef %28, i32 noundef %29, i32 noundef %30, i32 noundef %33)
  %35 = load ptr, ptr %4, align 8
  %36 = getelementptr inbounds nuw %struct.dbus_packet_t, ptr %35, i32 0, i32 7
  store ptr %34, ptr %36, align 8
  call void @llvm.lifetime.start.p0(i64 4, ptr %10) #11
  %37 = load i32, ptr %8, align 4
  store i32 %37, ptr %10, align 4
  br label %38

38:                                               ; preds = %55, %25
  %39 = load i32, ptr %10, align 4
  %40 = load i32, ptr %8, align 4
  %41 = load i32, ptr %9, align 4
  %42 = add i32 %40, %41
  %43 = icmp slt i32 %39, %42
  br i1 %43, label %45, label %44

44:                                               ; preds = %38
  store i32 2, ptr %11, align 4
  br label %58

45:                                               ; preds = %38
  %46 = load ptr, ptr %7, align 8
  %47 = load i32, ptr %10, align 4
  %48 = call zeroext i8 @tvb_get_uint8(ptr noundef %46, i32 noundef %47)
  store i8 %48, ptr %6, align 1
  %49 = load i8, ptr %6, align 1
  %50 = zext i8 %49 to i32
  %51 = icmp ne i32 %50, 0
  br i1 %51, label %52, label %54

52:                                               ; preds = %45
  %53 = load ptr, ptr %4, align 8
  call void @add_expert(ptr noundef %53, ptr noundef @ei_dbus_padding_invalid)
  store i32 1, ptr %3, align 4
  store i32 1, ptr %11, align 4
  br label %58

54:                                               ; preds = %45
  br label %55

55:                                               ; preds = %54
  %56 = load i32, ptr %10, align 4
  %57 = add i32 %56, 1
  store i32 %57, ptr %10, align 4
  br label %38, !llvm.loop !17

58:                                               ; preds = %52, %44
  call void @llvm.lifetime.end.p0(i64 4, ptr %10) #11
  %59 = load i32, ptr %11, align 4
  switch i32 %59, label %65 [
    i32 2, label %60
  ]

60:                                               ; preds = %58
  %61 = load ptr, ptr %4, align 8
  %62 = getelementptr inbounds nuw %struct.dbus_packet_t, ptr %61, i32 0, i32 7
  %63 = load ptr, ptr %62, align 8
  call void @proto_item_set_hidden(ptr noundef %63)
  br label %64

64:                                               ; preds = %60, %2
  store i32 0, ptr %3, align 4
  store i32 1, ptr %11, align 4
  br label %65

65:                                               ; preds = %64, %58
  call void @llvm.lifetime.end.p0(i64 4, ptr %9) #11
  call void @llvm.lifetime.end.p0(i64 4, ptr %8) #11
  call void @llvm.lifetime.end.p0(i64 8, ptr %7) #11
  call void @llvm.lifetime.end.p0(i64 1, ptr %6) #11
  %66 = load i32, ptr %3, align 4
  ret i32 %66
}