; Function Attrs: null_pointer_is_valid sspstrong uwtable
define internal fastcc range(i32 0, 2) i32 @add_padding(ptr noundef captures(none) %0, i8 noundef signext %1) unnamed_addr #0 {
  %3 = load ptr, ptr %0, align 8
  %4 = tail call ptr @ptvcursor_tvbuff(ptr noundef %3)
  %5 = load ptr, ptr %0, align 8
  %6 = tail call i32 @ptvcursor_current_offset(ptr noundef %5)
  switch i8 %1, label %calculate_padding_len.exit [
    i8 123, label %9
    i8 40, label %9
    i8 100, label %9
    i8 110, label %7
    i8 113, label %7
    i8 105, label %8
    i8 117, label %8
    i8 98, label %8
    i8 111, label %8
    i8 97, label %8
    i8 115, label %8
    i8 104, label %8
    i8 120, label %9
    i8 116, label %9
  ]

7:                                                ; preds = %2, %2
  br label %calculate_padding_len.exit

8:                                                ; preds = %2, %2, %2, %2, %2, %2, %2
  br label %calculate_padding_len.exit

9:                                                ; preds = %2, %2, %2, %2, %2
  br label %calculate_padding_len.exit

calculate_padding_len.exit:                       ; preds = %2, %7, %8, %9
  %.0.i = phi i32 [ 4, %8 ], [ 2, %7 ], [ 8, %9 ], [ 1, %2 ]
  %10 = srem i32 %6, %.0.i
  %11 = sub nsw i32 %.0.i, %10
  %.lhs.trunc.i = trunc nsw i32 %11 to i8
  %.rhs.trunc.i = trunc nuw nsw i32 %.0.i to i8
  %12 = srem i8 %.lhs.trunc.i, %.rhs.trunc.i
  %.not = icmp eq i8 %12, 0
  br i1 %.not, label %proto_item_set_hidden.exit, label %13

13:                                               ; preds = %calculate_padding_len.exit
  %.sext.i = sext i8 %12 to i32
  %14 = load ptr, ptr %0, align 8
  %15 = load i32, ptr @hf_dbus_padding, align 4
  %16 = getelementptr inbounds nuw i8, ptr %0, i64 16
  %17 = load i32, ptr %16, align 8
  %18 = tail call ptr @ptvcursor_add(ptr noundef %14, i32 noundef %15, i32 noundef %.sext.i, i32 noundef %17)
  %19 = getelementptr inbounds nuw i8, ptr %0, i64 40
  store ptr %18, ptr %19, align 8
  %20 = add i32 %6, %.sext.i
  %.not2426 = icmp slt i32 %6, %20
  br i1 %.not2426, label %.lr.ph, label %.critedge

21:                                               ; preds = %.lr.ph
  %22 = add i32 %.02027, 1
  %exitcond.not = icmp eq i32 %22, %20
  br i1 %exitcond.not, label %.critedge.loopexit, label %.lr.ph, !llvm.loop !18

.lr.ph:                                           ; preds = %13, %21
  %.02027 = phi i32 [ %22, %21 ], [ %6, %13 ]
  %23 = tail call zeroext i8 @tvb_get_uint8(ptr noundef %4, i32 noundef %.02027)
  %.not23 = icmp eq i8 %23, 0
  br i1 %.not23, label %21, label %24

24:                                               ; preds = %.lr.ph
  %25 = getelementptr i8, ptr %0, i64 8
  %.val = load ptr, ptr %25, align 8
  %.val25 = load ptr, ptr %19, align 8
  %26 = tail call ptr @expert_add_info(ptr noundef %.val, ptr noundef %.val25, ptr noundef nonnull @ei_dbus_padding_invalid)
  br label %proto_item_set_hidden.exit

.critedge.loopexit:                               ; preds = %21
  %.pre = load ptr, ptr %19, align 8
  br label %.critedge

.critedge:                                        ; preds = %.critedge.loopexit, %13
  %27 = phi ptr [ %.pre, %.critedge.loopexit ], [ %18, %13 ]
  %.not.i = icmp eq ptr %27, null
  br i1 %.not.i, label %proto_item_set_hidden.exit, label %28

28:                                               ; preds = %.critedge
  %29 = getelementptr inbounds nuw i8, ptr %27, i64 40
  %30 = load ptr, ptr %29, align 8
  %.not5.i = icmp eq ptr %30, null
  br i1 %.not5.i, label %proto_item_set_hidden.exit, label %31

31:                                               ; preds = %28
  %32 = getelementptr inbounds nuw i8, ptr %30, i64 28
  %33 = load i32, ptr %32, align 4
  %34 = or i32 %33, 1
  store i32 %34, ptr %32, align 4
  br label %proto_item_set_hidden.exit

proto_item_set_hidden.exit:                       ; preds = %31, %28, %.critedge, %24, %calculate_padding_len.exit
  %.1 = phi i32 [ 1, %24 ], [ 0, %calculate_padding_len.exit ], [ 0, %.critedge ], [ 0, %28 ], [ 0, %31 ]
  ret i32 %.1
}